target datalayout = "e-m:e-p270:32:32-p271:32:32-p272:64:64-i64:64-i128:128-f80:128-n8:16:32:64-S128"
target triple = "x86_64-pc-linux-gnu"

%struct.AVProbeData = type { ptr, ptr, i32, ptr }

; Function Attrs: alwaysinline nounwind willreturn memory(none) uwtable
define internal i32 @av_bswap32(i32 noundef %0) #3 {
  %2 = alloca i32, align 4
  store i32 %0, ptr %2, align 4, !tbaa !9
  %3 = load i32, ptr %2, align 4, !tbaa !9
  %4 = shl i32 %3, 8
  %5 = and i32 %4, 65280
  %6 = load i32, ptr %2, align 4, !tbaa !9
  %7 = lshr i32 %6, 8
  %8 = and i32 %7, 255
  %9 = or i32 %5, %8
  %10 = shl i32 %9, 16
  %11 = load i32, ptr %2, align 4, !tbaa !9
  %12 = lshr i32 %11, 16
  %13 = shl i32 %12, 8
  %14 = and i32 %13, 65280
  %15 = load i32, ptr %2, align 4, !tbaa !9
  %16 = lshr i32 %15, 16
  %17 = lshr i32 %16, 8
  %18 = and i32 %17, 255
  %19 = or i32 %14, %18
  %20 = or i32 %10, %19
  ret i32 %20
}

; Function Attrs: nounwind uwtable
define internal i32 @get_score(ptr noundef %0, i32 noundef %1, i32 noundef %2, ptr noundef %3) #0 {
  %5 = alloca i32, align 4
  %6 = alloca ptr, align 8
  %7 = alloca i32, align 4
  %8 = alloca i32, align 4
  %9 = alloca ptr, align 8
  store ptr %0, ptr %6, align 8, !tbaa !133
  store i32 %1, ptr %7, align 4, !tbaa !9
  store i32 %2, ptr %8, align 4, !tbaa !9
  store ptr %3, ptr %9, align 8, !tbaa !134
  %10 = load i32, ptr %8, align 4, !tbaa !9
  %11 = icmp eq i32 %10, 31
  br i1 %11, label %12, label %23

12:                                               ; preds = %4
  %13 = load i32, ptr %7, align 4, !tbaa !9
  %14 = icmp slt i32 %13, 4
  br i1 %14, label %20, label %15

15:                                               ; preds = %12
  %16 = load ptr, ptr %6, align 8, !tbaa !133
  %17 = load i32, ptr %16, align 1, !tbaa !66
  %18 = call i32 @av_bswap32(i32 noundef %17) #7
  %19 = icmp ne i32 %18, 1767992678
  br i1 %19, label %20, label %21

20:                                               ; preds = %15, %12
  store i32 0, ptr %5, align 4
  br label %46

21:                                               ; preds = %15
  %22 = load ptr, ptr %9, align 8, !tbaa !134
  store i32 1, ptr %22, align 4, !tbaa !9
  store i32 -1, ptr %5, align 4
  br label %46

23:                                               ; preds = %4
  %24 = load i32, ptr %8, align 4, !tbaa !9
  %25 = icmp uge i32 %24, 0
  br i1 %25, label %26, label %34

26:                                               ; preds = %23
  %27 = load i32, ptr %8, align 4, !tbaa !9
  %28 = icmp ule i32 %27, 4
  br i1 %28, label %29, label %34

29:                                               ; preds = %26
  %30 = load ptr, ptr %9, align 8, !tbaa !134
  %31 = load i32, ptr %30, align 4, !tbaa !9
  %32 = icmp ne i32 %31, 0
  %33 = select i1 %32, i32 -1, i32 0
  store i32 %33, ptr %5, align 4
  br label %46

34:                                               ; preds = %26, %23
  %35 = load i32, ptr %8, align 4, !tbaa !9
  %36 = icmp uge i32 %35, 5
  br i1 %36, label %37, label %45

37:                                               ; preds = %34
  %38 = load i32, ptr %8, align 4, !tbaa !9
  %39 = icmp ule i32 %38, 23
  br i1 %39, label %40, label %45

40:                                               ; preds = %37
  %41 = load ptr, ptr %9, align 8, !tbaa !134
  %42 = load i32, ptr %41, align 4, !tbaa !9
  %43 = icmp ne i32 %42, 0
  %44 = select i1 %43, i32 51, i32 0
  store i32 %44, ptr %5, align 4
  br label %46

45:                                               ; preds = %37, %34
  store i32 0, ptr %5, align 4
  br label %46

46:                                               ; preds = %45, %40, %29, %21, %20
  %47 = load i32, ptr %5, align 4
  ret i32 %47
}

; Function Attrs: nounwind uwtable
define internal i32 @iamf_probe(ptr noundef %0) #0 {
  %2 = alloca i32, align 4
  %3 = alloca ptr, align 8
  %4 = alloca i32, align 4
  %5 = alloca i32, align 4
  %6 = alloca i32, align 4
  %7 = alloca i32, align 4
  %8 = alloca i32, align 4
  %9 = alloca i32, align 4
  %10 = alloca i32, align 4
  %11 = alloca i32, align 4
  store ptr %0, ptr %3, align 8, !tbaa !4
  call void @llvm.lifetime.start.p0(i64 4, ptr %4) #5
  call void @llvm.lifetime.start.p0(i64 4, ptr %5) #5
  call void @llvm.lifetime.start.p0(i64 4, ptr %6) #5
  store i32 0, ptr %6, align 4, !tbaa !9
  call void @llvm.lifetime.start.p0(i64 4, ptr %7) #5
  store i32 0, ptr %7, align 4, !tbaa !9
  call void @llvm.lifetime.start.p0(i64 4, ptr %8) #5
  call void @llvm.lifetime.start.p0(i64 4, ptr %9) #5
  br label %12

12:                                               ; preds = %74, %1
  br label %13

13:                                               ; preds = %12
  call void @llvm.lifetime.start.p0(i64 4, ptr %10) #5
  %14 = load ptr, ptr %3, align 8, !tbaa !4
  %15 = getelementptr inbounds nuw %struct.AVProbeData, ptr %14, i32 0, i32 1
  %16 = load ptr, ptr %15, align 8, !tbaa !11
  %17 = load i32, ptr %7, align 4, !tbaa !9
  %18 = sext i32 %17 to i64
  %19 = getelementptr inbounds i8, ptr %16, i64 %18
  %20 = load ptr, ptr %3, align 8, !tbaa !4
  %21 = getelementptr inbounds nuw %struct.AVProbeData, ptr %20, i32 0, i32 2
  %22 = load i32, ptr %21, align 8, !tbaa !14
  %23 = load i32, ptr %7, align 4, !tbaa !9
  %24 = sub nsw i32 %22, %23
  %25 = call i32 @ff_iamf_parse_obu_header(ptr noundef %19, i32 noundef %24, ptr noundef %4, ptr noundef %8, ptr noundef %5, ptr noundef null, ptr noundef null)
  store i32 %25, ptr %10, align 4, !tbaa !9
  %26 = load i32, ptr %10, align 4, !tbaa !9
  %27 = icmp slt i32 %26, 0
  br i1 %27, label %28, label %29

28:                                               ; preds = %13
  store i32 0, ptr %2, align 4
  store i32 1, ptr %11, align 4
  br label %72

29:                                               ; preds = %13
  %30 = load ptr, ptr %3, align 8, !tbaa !4
  %31 = getelementptr inbounds nuw %struct.AVProbeData, ptr %30, i32 0, i32 1
  %32 = load ptr, ptr %31, align 8, !tbaa !11
  %33 = load i32, ptr %7, align 4, !tbaa !9
  %34 = sext i32 %33 to i64
  %35 = getelementptr inbounds i8, ptr %32, i64 %34
  %36 = load i32, ptr %8, align 4, !tbaa !9
  %37 = sext i32 %36 to i64
  %38 = getelementptr inbounds i8, ptr %35, i64 %37
  %39 = load ptr, ptr %3, align 8, !tbaa !4
  %40 = getelementptr inbounds nuw %struct.AVProbeData, ptr %39, i32 0, i32 2
  %41 = load i32, ptr %40, align 8, !tbaa !14
  %42 = load i32, ptr %7, align 4, !tbaa !9
  %43 = sub nsw i32 %41, %42
  %44 = load i32, ptr %8, align 4, !tbaa !9
  %45 = sub nsw i32 %43, %44
  %46 = load i32, ptr %5, align 4, !tbaa !9
  %47 = call i32 @get_score(ptr noundef %38, i32 noundef %45, i32 noundef %46, ptr noundef %6)
  store i32 %47, ptr %9, align 4, !tbaa !9
  %48 = load i32, ptr %9, align 4, !tbaa !9
  %49 = icmp sge i32 %48, 0
  br i1 %49, label %50, label %52

50:                                               ; preds = %29
  %51 = load i32, ptr %9, align 4, !tbaa !9
  store i32 %51, ptr %2, align 4
  store i32 1, ptr %11, align 4
  br label %72

52:                                               ; preds = %29
  %53 = load i32, ptr %10, align 4, !tbaa !9
  %54 = load ptr, ptr %3, align 8, !tbaa !4
  %55 = getelementptr inbounds nuw %struct.AVProbeData, ptr %54, i32 0, i32 2
  %56 = load i32, ptr %55, align 8, !tbaa !14
  %57 = load i32, ptr %7, align 4, !tbaa !9
  %58 = sub nsw i32 %56, %57
  %59 = icmp sgt i32 %53, %58
  br i1 %59, label %60, label %66

60:                                               ; preds = %52
  %61 = load ptr, ptr %3, align 8, !tbaa !4
  %62 = getelementptr inbounds nuw %struct.AVProbeData, ptr %61, i32 0, i32 2
  %63 = load i32, ptr %62, align 8, !tbaa !14
  %64 = load i32, ptr %7, align 4, !tbaa !9
  %65 = sub nsw i32 %63, %64
  br label %68

66:                                               ; preds = %52
  %67 = load i32, ptr %10, align 4, !tbaa !9
  br label %68

68:                                               ; preds = %66, %60
  %69 = phi i32 [ %65, %60 ], [ %67, %66 ]
  %70 = load i32, ptr %7, align 4, !tbaa !9
  %71 = add nsw i32 %70, %69
  store i32 %71, ptr %7, align 4, !tbaa !9
  store i32 0, ptr %11, align 4
  br label %72

72:                                               ; preds = %68, %50, %28
  call void @llvm.lifetime.end.p0(i64 4, ptr %10) #5
  %73 = load i32, ptr %11, align 4
  switch i32 %73, label %75 [
    i32 0, label %74
  ]

74:                                               ; preds = %72
  br label %12

75:                                               ; preds = %72
  call void @llvm.lifetime.end.p0(i64 4, ptr %9) #5
  call void @llvm.lifetime.end.p0(i64 4, ptr %8) #5
  call void @llvm.lifetime.end.p0(i64 4, ptr %7) #5
  call void @llvm.lifetime.end.p0(i64 4, ptr %6) #5
  call void @llvm.lifetime.end.p0(i64 4, ptr %5) #5
  call void @llvm.lifetime.end.p0(i64 4, ptr %4) #5
  %76 = load i32, ptr %2, align 4
  ret i32 %76
}