; Function Attrs: nounwind uwtable
define internal range(i32 0, 52) i32 @iamf_probe(ptr noundef readonly captures(none) %0) #0 {
  %2 = alloca i32, align 4
  %3 = alloca i32, align 4
  %4 = alloca i32, align 4
  call void @llvm.lifetime.start.p0(i64 4, ptr nonnull %2) #5
  call void @llvm.lifetime.start.p0(i64 4, ptr nonnull %3) #5
  call void @llvm.lifetime.start.p0(i64 4, ptr nonnull %4) #5
  %5 = getelementptr inbounds nuw i8, ptr %0, i64 8
  %6 = getelementptr inbounds nuw i8, ptr %0, i64 16
  %7 = load ptr, ptr %5, align 8, !tbaa !4
  %8 = load i32, ptr %6, align 8, !tbaa !11
  %9 = call i32 @ff_iamf_parse_obu_header(ptr noundef %7, i32 noundef %8, ptr noundef nonnull %2, ptr noundef nonnull %4, ptr noundef nonnull %3, ptr noundef null, ptr noundef null) #5
  %10 = icmp slt i32 %9, 0
  br i1 %10, label %get_score.exit.thread, label %.lr.ph

.lr.ph:                                           ; preds = %1, %get_score.exit.thread29
  %11 = phi i32 [ %38, %get_score.exit.thread29 ], [ %9, %1 ]
  %12 = phi i64 [ %35, %get_score.exit.thread29 ], [ 0, %1 ]
  %.02041 = phi i32 [ %34, %get_score.exit.thread29 ], [ 0, %1 ]
  %.040 = phi i32 [ %.232, %get_score.exit.thread29 ], [ 0, %1 ]
  %13 = load ptr, ptr %5, align 8, !tbaa !4
  %14 = getelementptr inbounds i8, ptr %13, i64 %12
  %15 = load i32, ptr %4, align 4, !tbaa !12
  %16 = sext i32 %15 to i64
  %17 = getelementptr inbounds i8, ptr %14, i64 %16
  %18 = load i32, ptr %6, align 8, !tbaa !11
  %19 = load i32, ptr %3, align 4, !tbaa !12
  %20 = icmp eq i32 %19, 31
  br i1 %20, label %21, label %27

21:                                               ; preds = %.lr.ph
  %22 = add i32 %15, %.02041
  %23 = sub i32 %18, %22
  %24 = icmp slt i32 %23, 4
  br i1 %24, label %get_score.exit.thread, label %25

25:                                               ; preds = %21
  %26 = load i32, ptr %17, align 1, !tbaa !13
  %.not15.i = icmp eq i32 %26, 1718444393
  br i1 %.not15.i, label %get_score.exit.thread29, label %get_score.exit.thread

27:                                               ; preds = %.lr.ph
  %28 = icmp ult i32 %19, 5
  br i1 %28, label %get_score.exit, label %29

29:                                               ; preds = %27
  %30 = icmp ult i32 %19, 24
  br i1 %30, label %31, label %get_score.exit.thread

31:                                               ; preds = %29
  %.not.i = icmp eq i32 %.040, 0
  %32 = select i1 %.not.i, i32 0, i32 51
  br label %get_score.exit.thread

get_score.exit:                                   ; preds = %27
  %.not.not = icmp eq i32 %.040, 0
  br i1 %.not.not, label %get_score.exit.thread, label %get_score.exit.thread29

get_score.exit.thread29:                          ; preds = %25, %get_score.exit
  %.232 = phi i32 [ %.040, %get_score.exit ], [ 1, %25 ]
  %33 = sub nsw i32 %18, %.02041
  %. = call i32 @llvm.smin.i32(i32 %11, i32 %33)
  %34 = add nsw i32 %., %.02041
  %35 = sext i32 %34 to i64
  %36 = getelementptr inbounds i8, ptr %13, i64 %35
  %37 = sub nsw i32 %18, %34
  %38 = call i32 @ff_iamf_parse_obu_header(ptr noundef %36, i32 noundef %37, ptr noundef nonnull %2, ptr noundef nonnull %4, ptr noundef nonnull %3, ptr noundef null, ptr noundef null) #5
  %39 = icmp slt i32 %38, 0
  br i1 %39, label %get_score.exit.thread, label %.lr.ph

get_score.exit.thread:                            ; preds = %get_score.exit, %get_score.exit.thread29, %25, %21, %1, %29, %31
  %.1.ph = phi i32 [ 0, %29 ], [ %32, %31 ], [ 0, %1 ], [ 0, %21 ], [ 0, %25 ], [ 0, %get_score.exit.thread29 ], [ 0, %get_score.exit ]
  call void @llvm.lifetime.end.p0(i64 4, ptr nonnull %4) #5
  call void @llvm.lifetime.end.p0(i64 4, ptr nonnull %3) #5
  call void @llvm.lifetime.end.p0(i64 4, ptr nonnull %2) #5
  ret i32 %.1.ph
}